ccopy_reg
_reconstructor
p0
(cnearpy.hashes.randombinaryprojections
RandomBinaryProjections
p1
c__builtin__
object
p2
Ntp3
Rp4
(dp5
S'normals'
p6
NsS'dim'
p7
NsS'hash_name'
p8
S'rbp'
p9
sS'projection_count'
p10
I10
sb.